target datalayout = "e-m:e-p270:32:32-p271:32:32-p272:64:64-i64:64-i128:128-f80:128-n8:16:32:64-S128"
target triple = "x86_64-pc-linux-gnu"

%struct.BEValue = type { i8, i32, ptr, ptr, ptr }
%struct.Expr_ = type { ptr, %union.SourceSpan, i16, %union.anon.29 }
%union.SourceSpan = type { i64 }
%union.anon.29 = type { %struct.ExprAnySwitch }
%struct.ExprAnySwitch = type { i8, %union.anon.31 }
%union.anon.31 = type { %struct.anon.32 }
%struct.anon.32 = type { ptr, %union.SourceSpan, ptr }
%struct.ExprCall = type { %union.anon.33, i32, i16, ptr, %union.anon.34 }
%union.anon.33 = type { i32 }
%union.anon.34 = type { ptr }

; Function Attrs: nounwind uwtable
define dso_local void @llvm_emit_reduce_int_builtin(ptr noundef %0, i32 noundef %1, ptr noundef %2, ptr noundef %3) #0 {
  %5 = alloca ptr, align 8
  %6 = alloca ptr, align 8
  %7 = alloca ptr, align 8
  %8 = alloca i32, align 4
  %9 = alloca %struct.BEValue, align 8
  %10 = alloca i32, align 4
  %11 = alloca ptr, align 8
  %12 = alloca i32, align 4
  %13 = alloca ptr, align 8
  %14 = alloca ptr, align 8
  %15 = alloca ptr, align 8
  %16 = alloca [1 x ptr], align 8
  %17 = alloca [1 x ptr], align 8
  %18 = alloca ptr, align 8
  store ptr %0, ptr %11, align 8
  store i32 %1, ptr %12, align 4
  store ptr %2, ptr %13, align 8
  store ptr %3, ptr %14, align 8
  %19 = load ptr, ptr %14, align 8
  %20 = getelementptr inbounds %struct.Expr_, ptr %19, i32 0, i32 3
  %21 = getelementptr inbounds %struct.ExprCall, ptr %20, i32 0, i32 3
  %22 = load ptr, ptr %21, align 8
  store ptr %22, ptr %15, align 8
  %23 = load ptr, ptr %11, align 8
  %24 = load ptr, ptr %15, align 8
  %25 = getelementptr inbounds [1 x ptr], ptr %16, i64 0, i64 0
  store ptr %23, ptr %5, align 8
  store ptr %24, ptr %6, align 8
  store ptr %25, ptr %7, align 8
  store i32 1, ptr %8, align 4
  store i32 0, ptr %10, align 4
  br label %26

26:                                               ; preds = %30, %4
  %27 = load i32, ptr %10, align 4
  %28 = load i32, ptr %8, align 4
  %29 = icmp ult i32 %27, %28
  br i1 %29, label %30, label %46

30:                                               ; preds = %26
  %31 = load ptr, ptr %5, align 8
  %32 = load ptr, ptr %6, align 8
  %33 = load i32, ptr %10, align 4
  %34 = zext i32 %33 to i64
  %35 = getelementptr inbounds ptr, ptr %32, i64 %34
  %36 = load ptr, ptr %35, align 8
  call void @llvm_emit_expr(ptr noundef %31, ptr noundef %9, ptr noundef %36) #6
  %37 = load ptr, ptr %5, align 8
  call void @llvm_value_rvalue(ptr noundef %37, ptr noundef %9) #6
  %38 = getelementptr inbounds %struct.BEValue, ptr %9, i32 0, i32 3
  %39 = load ptr, ptr %38, align 8
  %40 = load ptr, ptr %7, align 8
  %41 = load i32, ptr %10, align 4
  %42 = zext i32 %41 to i64
  %43 = getelementptr inbounds ptr, ptr %40, i64 %42
  store ptr %39, ptr %43, align 8
  %44 = load i32, ptr %10, align 4
  %45 = add i32 %44, 1
  store i32 %45, ptr %10, align 4
  br label %26, !llvm.loop !7

46:                                               ; preds = %26
  %47 = getelementptr inbounds [1 x ptr], ptr %17, i64 0, i64 0
  %48 = getelementptr inbounds [1 x ptr], ptr %16, i64 0, i64 0
  %49 = load ptr, ptr %48, align 8
  %50 = call ptr @LLVMTypeOf(ptr noundef %49)
  store ptr %50, ptr %47, align 8
  %51 = load ptr, ptr %11, align 8
  %52 = load i32, ptr %12, align 4
  %53 = getelementptr inbounds [1 x ptr], ptr %17, i64 0, i64 0
  %54 = getelementptr inbounds [1 x ptr], ptr %16, i64 0, i64 0
  %55 = call ptr @llvm_emit_call_intrinsic(ptr noundef %51, i32 noundef %52, ptr noundef %53, i32 noundef 1, ptr noundef %54, i32 noundef 1)
  store ptr %55, ptr %18, align 8
  %56 = load ptr, ptr %13, align 8
  %57 = load ptr, ptr %18, align 8
  %58 = load ptr, ptr %14, align 8
  %59 = getelementptr inbounds %struct.Expr_, ptr %58, i32 0, i32 0
  %60 = load ptr, ptr %59, align 8
  call void @llvm_value_set(ptr noundef %56, ptr noundef %57, ptr noundef %60)
  ret void
}