; Function Attrs: nounwind uwtable
define dso_local void @llvm_emit_reduce_int_builtin(ptr noundef %0, i32 noundef %1, ptr noundef %2, ptr nocapture noundef readonly %3) local_unnamed_addr #0 {
.critedge:
  %4 = alloca %struct.BEValue, align 8
  %5 = alloca [1 x ptr], align 8
  %6 = alloca [1 x ptr], align 8
  %7 = getelementptr inbounds i8, ptr %3, i64 40
  %8 = load ptr, ptr %7, align 8
  %9 = load ptr, ptr %8, align 8
  call void @llvm_emit_expr(ptr noundef %0, ptr noundef nonnull %4, ptr noundef %9) #8
  call void @llvm_value_rvalue(ptr noundef %0, ptr noundef nonnull %4) #8
  %10 = getelementptr inbounds i8, ptr %4, i64 16
  %11 = load ptr, ptr %10, align 8
  store ptr %11, ptr %5, align 8
  %12 = call ptr @LLVMTypeOf(ptr noundef %11) #8
  store ptr %12, ptr %6, align 8
  %13 = call ptr @llvm_emit_call_intrinsic(ptr noundef %0, i32 noundef %1, ptr noundef nonnull %6, i32 noundef 1, ptr noundef nonnull %5, i32 noundef 1) #8
  %14 = load ptr, ptr %3, align 8
  call void @llvm_value_set(ptr noundef %2, ptr noundef %13, ptr noundef %14) #8
  ret void
}